target datalayout = "e-m:e-p270:32:32-p271:32:32-p272:64:64-i64:64-i128:128-f80:128-n8:16:32:64-S128"
target triple = "x86_64-pc-linux-gnu"

%"struct.BuildLog::LogEntry" = type { %"class.std::__cxx11::basic_string", i64, i32, i32, i64 }
%"class.std::__cxx11::basic_string" = type { %"struct.std::__cxx11::basic_string<char>::_Alloc_hider", i64, %union.anon }
%"struct.std::__cxx11::basic_string<char>::_Alloc_hider" = type { ptr }
%union.anon = type { i64, [8 x i8] }

@.str.5 = private unnamed_addr constant [18 x i8] c"%d\09%d\09%ld\09%s\09%lx\0A\00", align 1

; Function Attrs: mustprogress nounwind uwtable
define available_externally noundef ptr @_ZNKSt7__cxx1112basic_stringIcSt11char_traitsIcESaIcEE7_M_dataEv(ptr noundef nonnull align 8 dereferenceable(32) %0) #0 align 2 {
  %2 = alloca ptr, align 8
  store ptr %0, ptr %2, align 8, !tbaa !16
  %3 = load ptr, ptr %2, align 8
  %4 = getelementptr inbounds nuw %"class.std::__cxx11::basic_string", ptr %3, i32 0, i32 0
  %5 = getelementptr inbounds nuw %"struct.std::__cxx11::basic_string<char>::_Alloc_hider", ptr %4, i32 0, i32 0
  %6 = load ptr, ptr %5, align 8, !tbaa !120
  ret ptr %6
}

; Function Attrs: mustprogress nounwind uwtable
define available_externally noundef ptr @_ZNKSt7__cxx1112basic_stringIcSt11char_traitsIcESaIcEE5c_strEv(ptr noundef nonnull align 8 dereferenceable(32) %0) #0 align 2 {
  %2 = alloca ptr, align 8
  store ptr %0, ptr %2, align 8, !tbaa !16
  %3 = load ptr, ptr %2, align 8
  %4 = call noundef ptr @_ZNKSt7__cxx1112basic_stringIcSt11char_traitsIcESaIcEE7_M_dataEv(ptr noundef nonnull align 8 dereferenceable(32) %3)
  ret ptr %4
}

; Function Attrs: mustprogress nounwind uwtable
define dso_local noundef zeroext i1 @_ZN8BuildLog10WriteEntryEP8_IO_FILERKNS_8LogEntryE(ptr noundef nonnull align 8 dereferenceable(89) %0, ptr noundef %1, ptr noundef nonnull align 8 dereferenceable(56) %2) #0 align 2 {
  %4 = alloca ptr, align 8
  %5 = alloca ptr, align 8
  %6 = alloca ptr, align 8
  store ptr %0, ptr %4, align 8, !tbaa !28
  store ptr %1, ptr %5, align 8, !tbaa !55
  store ptr %2, ptr %6, align 8, !tbaa !14
  %7 = load ptr, ptr %5, align 8, !tbaa !55
  %8 = load ptr, ptr %6, align 8, !tbaa !14
  %9 = getelementptr inbounds nuw %"struct.BuildLog::LogEntry", ptr %8, i32 0, i32 2
  %10 = load i32, ptr %9, align 8, !tbaa !23
  %11 = load ptr, ptr %6, align 8, !tbaa !14
  %12 = getelementptr inbounds nuw %"struct.BuildLog::LogEntry", ptr %11, i32 0, i32 3
  %13 = load i32, ptr %12, align 4, !tbaa !24
  %14 = load ptr, ptr %6, align 8, !tbaa !14
  %15 = getelementptr inbounds nuw %"struct.BuildLog::LogEntry", ptr %14, i32 0, i32 4
  %16 = load i64, ptr %15, align 8, !tbaa !25
  %17 = load ptr, ptr %6, align 8, !tbaa !14
  %18 = getelementptr inbounds nuw %"struct.BuildLog::LogEntry", ptr %17, i32 0, i32 0
  %19 = call noundef ptr @_ZNKSt7__cxx1112basic_stringIcSt11char_traitsIcESaIcEE5c_strEv(ptr noundef nonnull align 8 dereferenceable(32) %18) #9
  %20 = load ptr, ptr %6, align 8, !tbaa !14
  %21 = getelementptr inbounds nuw %"struct.BuildLog::LogEntry", ptr %20, i32 0, i32 1
  %22 = load i64, ptr %21, align 8, !tbaa !18
  %23 = call i32 (ptr, ptr, ...) @fprintf(ptr noundef %7, ptr noundef @.str.5, i32 noundef %10, i32 noundef %13, i64 noundef %16, ptr noundef %19, i64 noundef %22) #9
  %24 = icmp sgt i32 %23, 0
  ret i1 %24
}