; Function Attrs: mustprogress nofree nounwind uwtable
define dso_local noundef zeroext i1 @_ZN8BuildLog10WriteEntryEP8_IO_FILERKNS_8LogEntryE(ptr noundef nonnull readnone align 8 captures(none) dereferenceable(89) %0, ptr noundef captures(none) %1, ptr noundef nonnull readonly align 8 captures(none) dereferenceable(56) %2) local_unnamed_addr #9 align 2 {
  %4 = getelementptr inbounds nuw i8, ptr %2, i64 40
  %5 = load i32, ptr %4, align 8, !tbaa !19
  %6 = getelementptr inbounds nuw i8, ptr %2, i64 44
  %7 = load i32, ptr %6, align 4, !tbaa !20
  %8 = getelementptr inbounds nuw i8, ptr %2, i64 48
  %9 = load i64, ptr %8, align 8, !tbaa !21
  %10 = load ptr, ptr %2, align 8, !tbaa !10
  %11 = getelementptr inbounds nuw i8, ptr %2, i64 32
  %12 = load i64, ptr %11, align 8, !tbaa !16
  %13 = tail call i32 (ptr, ptr, ...) @fprintf(ptr noundef %1, ptr noundef nonnull @.str.5, i32 noundef %5, i32 noundef %7, i64 noundef %9, ptr noundef %10, i64 noundef %12) #27
  %14 = icmp sgt i32 %13, 0
  ret i1 %14
}